; Function Attrs: mustprogress uwtable
define hidden void @_ZN7testing32ScopedFakeTestPartResultReporter4InitEv(ptr noundef nonnull align 8 dereferenceable(32) %0) local_unnamed_addr #3 align 2 personality ptr @__gxx_personality_v0 {
  %2 = load atomic i8, ptr @_ZGVZN7testing8UnitTest11GetInstanceEvE8instance acquire, align 8
  %3 = icmp eq i8 %2, 0
  br i1 %3, label %4, label %_ZN7testing8internal15GetUnitTestImplEv.exit, !prof !5

4:                                                ; preds = %1
  %5 = tail call i32 @__cxa_guard_acquire(ptr nonnull @_ZGVZN7testing8UnitTest11GetInstanceEvE8instance) #53
  %.not.i.i = icmp eq i32 %5, 0
  br i1 %.not.i.i, label %_ZN7testing8internal15GetUnitTestImplEv.exit, label %6

6:                                                ; preds = %4
  invoke void @_ZN7testing8UnitTestC2Ev(ptr noundef nonnull align 8 dereferenceable(24) @_ZZN7testing8UnitTest11GetInstanceEvE8instance)
          to label %7 unwind label %9

7:                                                ; preds = %6
  %8 = tail call i32 @__cxa_atexit(ptr nonnull @_ZN7testing8UnitTestD2Ev, ptr nonnull @_ZZN7testing8UnitTest11GetInstanceEvE8instance, ptr nonnull @__dso_handle) #53
  tail call void @__cxa_guard_release(ptr nonnull @_ZGVZN7testing8UnitTest11GetInstanceEvE8instance) #53
  br label %_ZN7testing8internal15GetUnitTestImplEv.exit

9:                                                ; preds = %6
  %10 = landingpad { ptr, i32 }
          cleanup
  tail call void @__cxa_guard_abort(ptr nonnull @_ZGVZN7testing8UnitTest11GetInstanceEvE8instance) #53
  resume { ptr, i32 } %10

_ZN7testing8internal15GetUnitTestImplEv.exit:     ; preds = %1, %4, %7
  %11 = load ptr, ptr getelementptr inbounds nuw (i8, ptr @_ZZN7testing8UnitTest11GetInstanceEvE8instance, i64 16), align 8
  %12 = getelementptr inbounds nuw i8, ptr %0, i64 8
  %13 = load i32, ptr %12, align 8
  %14 = icmp eq i32 %13, 1
  %15 = getelementptr inbounds nuw i8, ptr %0, i64 16
  %. = select i1 %14, i64 80, i64 96
  %16 = getelementptr inbounds nuw i8, ptr %11, i64 %.
  %17 = load ptr, ptr %16, align 8
  store ptr %17, ptr %15, align 8
  store ptr %0, ptr %16, align 8
  ret void
}